Certificate:
    Data:
        Version: 3 (0x2)
        Serial Number: 1 (0x1)
        Signature Algorithm: sha256WithRSAEncryption
        Issuer: CN=QUIC Server Root CA
        Validity
            Not Before: Oct 26 03:45:07 2019 GMT
            Not After : Oct 29 03:45:07 2019 GMT
        Subject: C=US, ST=California, L=Mountain View, O=QUIC Server, CN=127.0.0.1
        Subject Public Key Info:
            Public Key Algorithm: rsaEncryption
                RSA Public-Key: (2048 bit)
                Modulus:
                    00:d8:38:c8:69:2e:39:eb:76:91:0c:7b:9c:cd:91:
                    6a:36:57:cb:ea:34:59:eb:af:80:0b:d9:c6:ce:a2:
                    c9:f7:ee:74:2d:b2:28:4b:93:ea:ba:d2:dc:55:f3:
                    f9:7b:fc:1f:05:dd:8a:2e:05:e9:e4:81:dc:ad:e0:
                    4f:0b:3e:fb:c1:d3:61:da:eb:d7:78:5d:b6:0a:25:
                    72:db:5e:f8:4e:c5:8c:3d:1d:10:21:4e:ce:23:55:
                    fe:f3:09:18:d2:28:f7:f8:0d:fd:a4:b2:1d:48:0d:
                    65:0a:cf:95:28:fa:fd:a3:b6:8b:3b:33:8a:56:6c:
                    e9:f0:24:0f:ca:4c:46:1f:f2:cb:5a:12:b2:4c:e7:
                    d9:da:6c:9a:e5:3e:38:3c:dc:da:23:bd:c2:92:ae:
                    42:84:d2:11:72:51:e5:ba:1d:8a:f0:fe:0d:f8:cb:
                    0f:6c:50:a9:6b:84:57:5e:23:12:1a:ce:2f:6f:a7:
                    11:5d:8d:ec:ba:bc:11:a6:2b:b5:54:93:4c:00:90:
                    c2:66:be:a0:c7:e1:d2:45:05:bc:1d:75:bd:a3:84:
                    a7:f3:cf:ad:e0:f6:80:b3:2b:1e:e6:7e:75:2c:c3:
                    07:a7:15:da:88:0d:55:97:62:89:e8:fc:3a:83:6d:
                    2e:48:0a:ee:20:e5:96:0e:a3:d1:e8:00:d0:79:ea:
                    cd:1f
                Exponent: 65537 (0x10001)
        X509v3 extensions:
            X509v3 Basic Constraints: critical
                CA:FALSE
            X509v3 Subject Key Identifier: 
                E6:A8:73:6D:BF:D5:A9:AC:EA:33:23:0B:09:6D:FF:00:10:60:3F:A2
            X509v3 Authority Key Identifier: 
                keyid:05:81:61:C9:83:DD:70:7D:C9:A2:B4:F2:5B:F0:AA:D1:6A:8A:60:45

            X509v3 Extended Key Usage: 
                TLS Web Server Authentication, TLS Web Client Authentication
            X509v3 Subject Alternative Name: 
                DNS:www.example.org, DNS:mail.example.org, DNS:mail.example.com, DNS:www.quictest.com, IP Address:127.0.0.1
    Signature Algorithm: sha256WithRSAEncryption
         a2:43:1a:ac:43:87:a3:79:a3:b3:68:ac:8e:d7:15:0f:e9:ad:
         2d:a1:56:a9:32:0c:b0:7d:dc:e3:66:27:a9:e1:42:6e:ee:7f:
         ec:bc:a7:e1:fa:8c:4e:e8:93:c8:b7:dd:80:dd:1b:93:f8:69:
         3a:76:58:48:77:c2:8f:8d:7d:74:f1:fb:52:05:fb:e3:5e:80:
         1b:ae:59:e3:27:ae:1a:46:c0:8d:c8:46:9f:76:5d:51:ee:b5:
         bb:30:53:e9:ab:a7:b4:32:ec:34:38:0f:18:a7:d1:70:19:ca:
         81:68:7b:0d:57:ec:3b:a0:d9:6a:30:5e:42:8a:47:66:6e:48:
         5c:6f:9c:91:19:0d:b3:5c:1b:71:86:a1:c2:ac:f6:d5:5e:b7:
         4c:25:f6:dd:69:72:4c:44:17:b1:b6:b7:2c:2d:15:5d:96:e0:
         6f:27:91:07:39:16:71:dc:95:70:bd:0b:ba:7e:24:f1:4f:7a:
         7b:df:dd:8d:65:19:4b:e6:67:59:7f:d7:cb:47:4e:ca:d1:ce:
         32:a2:6f:8b:76:04:c6:1f:1c:6d:b7:01:f4:34:d7:9a:a5:d9:
         5c:6e:ab:4d:f1:14:4e:29:60:55:b6:9c:ea:f8:18:59:dd:97:
         ca:ee:fc:de:d5:3a:42:1a:92:5f:5b:0c:18:5a:9f:43:44:68:
         15:ef:c2:ed
-----BEGIN CERTIFICATE-----
MIIDxjCCAq6gAwIBAgIBATANBgkqhkiG9w0BAQsFADAeMRwwGgYDVQQDDBNRVUlD
IFNlcnZlciBSb290IENBMB4XDTE5MTAyNjAzNDUwN1oXDTE5MTAyOTAzNDUwN1ow
ZDELMAkGA1UEBhMCVVMxEzARBgNVBAgMCkNhbGlmb3JuaWExFjAUBgNVBAcMDU1v
dW50YWluIFZpZXcxFDASBgNVBAoMC1FVSUMgU2VydmVyMRIwEAYDVQQDDAkxMjcu
MC4wLjEwggEiMA0GCSqGSIb3DQEBAQUAA4IBDwAwggEKAoIBAQDYOMhpLjnrdpEM
e5zNkWo2V8vqNFnrr4AL2cbOosn37nQtsihLk+q60txV8/l7/B8F3YouBenkgdyt
4E8LPvvB02Ha69d4XbYKJXLbXvhOxYw9HRAhTs4jVf7zCRjSKPf4Df2ksh1IDWUK
z5Uo+v2jtos7M4pWbOnwJA/KTEYf8staErJM59nabJrlPjg83NojvcKSrkKE0hFy
UeW6HYrw/g34yw9sUKlrhFdeIxIazi9vpxFdjey6vBGmK7VUk0wAkMJmvqDH4dJF
Bbwddb2jhKfzz63g9oCzKx7mfnUswwenFdqIDVWXYono/DqDbS5ICu4g5ZYOo9Ho
ANB56s0fAgMBAAGjgcgwgcUwDAYDVR0TAQH/BAIwADAdBgNVHQ4EFgQU5qhzbb/V
qazqMyMLCW3/ABBgP6IwHwYDVR0jBBgwFoAUBYFhyYPdcH3JorTyW/Cq0WqKYEUw
HQYDVR0lBBYwFAYIKwYBBQUHAwEGCCsGAQUFBwMCMFYGA1UdEQRPME2CD3d3dy5l
eGFtcGxlLm9yZ4IQbWFpbC5leGFtcGxlLm9yZ4IQbWFpbC5leGFtcGxlLmNvbYIQ
d3d3LnF1aWN0ZXN0LmNvbYcEfwAAATANBgkqhkiG9w0BAQsFAAOCAQEAokMarEOH
o3mjs2isjtcVD+mtLaFWqTIMsH3c42YnqeFCbu5/7Lyn4fqMTuiTyLfdgN0bk/hp
OnZYSHfCj419dPH7UgX7416AG65Z4yeuGkbAjchGn3ZdUe61uzBT6auntDLsNDgP
GKfRcBnKgWh7DVfsO6DZajBeQopHZm5IXG+ckRkNs1wbcYahwqz21V63TCX23Wly
TEQXsba3LC0VXZbgbyeRBzkWcdyVcL0Lun4k8U96e9/djWUZS+ZnWX/Xy0dOytHO
MqJvi3YExh8cbbcB9DTXmqXZXG6rTfEUTilgVbac6vgYWd2Xyu783tU6QhqSX1sM
GFqfQ0RoFe/C7Q==
-----END CERTIFICATE-----
