Certificate:
    Data:
        Version: 3 (0x2)
        Serial Number:
            47:25:65:ba:09:38:35:11:6a:c7:80:28:20:fd:48:47:6b:84:0c:a6
        Signature Algorithm: sha256WithRSAEncryption
        Issuer: CN = QUIC Server Root CA
        Validity
            Not Before: Oct 26 03:45:06 2019 GMT
            Not After : Oct 29 03:45:06 2019 GMT
        Subject: CN = QUIC Server Root CA
        Subject Public Key Info:
            Public Key Algorithm: rsaEncryption
                RSA Public-Key: (2048 bit)
                Modulus:
                    00:c6:ad:fe:39:a3:ea:68:33:c9:6a:43:a1:e4:73:
                    9b:42:2c:82:87:fd:4d:2b:a9:f8:17:be:ea:19:26:
                    56:c2:79:57:5e:f0:2e:00:3a:1a:92:39:5a:6b:8b:
                    e4:84:db:b5:47:54:fc:69:6a:38:49:8e:2e:24:79:
                    bb:b4:bf:21:a4:24:72:3d:56:83:c1:2b:ad:00:ba:
                    49:6e:55:dd:aa:11:4b:10:9d:a9:c3:64:d9:4f:f8:
                    61:75:8e:43:58:f5:bd:e0:11:f4:ad:ab:5a:3f:66:
                    84:64:42:3e:a9:20:d6:c7:f5:74:d7:af:51:d4:6e:
                    77:eb:02:6b:f7:29:a2:be:a9:61:0f:22:af:87:0d:
                    2b:66:eb:ff:0d:3f:26:2a:ce:7a:eb:7a:a7:ec:8e:
                    fd:dc:c1:3b:6c:06:49:66:5a:73:10:39:71:f9:8b:
                    54:28:a1:bc:74:71:ad:6f:92:3e:3f:9a:44:7e:0a:
                    d7:e9:2e:5a:59:9b:15:6c:b6:ce:b2:fc:91:56:6c:
                    01:2d:8d:6a:7a:83:51:f7:54:7a:60:05:96:a1:a2:
                    63:79:bb:ee:d6:2a:1e:9b:41:4d:ba:6e:8f:1e:22:
                    2f:87:5a:de:66:8e:cf:de:a3:1a:b9:dd:03:ef:3c:
                    78:54:c9:24:8f:92:06:ef:84:e7:19:1d:c8:69:e3:
                    d4:71
                Exponent: 65537 (0x10001)
        X509v3 extensions:
            X509v3 Basic Constraints: critical
                CA:TRUE
            X509v3 Subject Key Identifier: 
                05:81:61:C9:83:DD:70:7D:C9:A2:B4:F2:5B:F0:AA:D1:6A:8A:60:45
            X509v3 Key Usage: critical
                Certificate Sign, CRL Sign
    Signature Algorithm: sha256WithRSAEncryption
         55:48:b4:ad:c2:b0:f0:e5:60:69:33:90:96:51:74:96:2b:6c:
         39:59:24:61:b6:6b:22:bc:60:8e:d5:35:90:12:5e:97:b1:44:
         d3:02:49:3e:2b:ba:2f:5c:ac:c1:0a:59:93:0d:1b:6a:4b:d8:
         d9:11:a3:94:6c:a3:dd:fb:b8:76:a4:2f:e7:a9:b1:ef:98:a8:
         e4:9b:b8:24:ac:5b:5f:02:95:84:64:51:05:5d:c1:56:39:49:
         b3:91:d0:07:29:76:8d:4a:19:99:19:f9:39:79:91:c0:73:0b:
         61:fa:ac:98:09:3c:32:8a:31:78:59:d3:e6:11:a7:07:d4:9b:
         fe:f7:72:ac:43:22:f4:dd:ea:f0:fb:4f:73:21:3b:d4:6a:b8:
         d7:4a:4e:40:78:46:1d:ca:de:cb:88:00:a9:1b:5c:03:27:85:
         ac:0c:57:90:8a:4a:6b:a5:91:a7:c8:0c:a3:d5:14:4e:c6:d9:
         85:49:48:91:d4:4b:ae:22:a3:d4:1f:77:a6:e9:b2:2c:ca:26:
         93:2e:11:6b:14:34:bd:4f:ed:e0:76:c4:de:d0:83:ff:b5:cc:
         9e:98:8d:3c:71:05:26:48:39:b0:0c:1c:16:ca:80:e9:08:6a:
         e8:70:a1:4d:9c:ab:63:53:7f:99:5f:c9:33:a8:ff:40:59:19:
         ee:7e:86:d1
-----BEGIN CERTIFICATE-----
MIIDDDCCAfSgAwIBAgIURyVlugk4NRFqx4AoIP1IR2uEDKYwDQYJKoZIhvcNAQEL
BQAwHjEcMBoGA1UEAwwTUVVJQyBTZXJ2ZXIgUm9vdCBDQTAeFw0xOTEwMjYwMzQ1
MDZaFw0xOTEwMjkwMzQ1MDZaMB4xHDAaBgNVBAMME1FVSUMgU2VydmVyIFJvb3Qg
Q0EwggEiMA0GCSqGSIb3DQEBAQUAA4IBDwAwggEKAoIBAQDGrf45o+poM8lqQ6Hk
c5tCLIKH/U0rqfgXvuoZJlbCeVde8C4AOhqSOVpri+SE27VHVPxpajhJji4kebu0
vyGkJHI9VoPBK60AukluVd2qEUsQnanDZNlP+GF1jkNY9b3gEfStq1o/ZoRkQj6p
INbH9XTXr1HUbnfrAmv3KaK+qWEPIq+HDStm6/8NPyYqznrreqfsjv3cwTtsBklm
WnMQOXH5i1Qoobx0ca1vkj4/mkR+CtfpLlpZmxVsts6y/JFWbAEtjWp6g1H3VHpg
BZahomN5u+7WKh6bQU26bo8eIi+HWt5mjs/eoxq53QPvPHhUySSPkgbvhOcZHchp
49RxAgMBAAGjQjBAMA8GA1UdEwEB/wQFMAMBAf8wHQYDVR0OBBYEFAWBYcmD3XB9
yaK08lvwqtFqimBFMA4GA1UdDwEB/wQEAwIBBjANBgkqhkiG9w0BAQsFAAOCAQEA
VUi0rcKw8OVgaTOQllF0litsOVkkYbZrIrxgjtU1kBJel7FE0wJJPiu6L1yswQpZ
kw0bakvY2RGjlGyj3fu4dqQv56mx75io5Ju4JKxbXwKVhGRRBV3BVjlJs5HQByl2
jUoZmRn5OXmRwHMLYfqsmAk8MooxeFnT5hGnB9Sb/vdyrEMi9N3q8PtPcyE71Gq4
10pOQHhGHcrey4gAqRtcAyeFrAxXkIpKa6WRp8gMo9UUTsbZhUlIkdRLriKj1B93
pumyLMomky4RaxQ0vU/t4HbE3tCD/7XMnpiNPHEFJkg5sAwcFsqA6Qhq6HChTZyr
Y1N/mV/JM6j/QFkZ7n6G0Q==
-----END CERTIFICATE-----
